; Function Attrs: mustprogress optsize uwtable
define internal fastcc noundef zeroext i1 @"_ZN9__gnu_cxx5__ops10_Iter_predIZN5ZXingL17ParseFormatStringERKNSt7__cxx1112basic_stringIcSt11char_traitsIcESaIcEEEE3$_0EclIPNS2_17BarcodeFormatNameEEEbT_"(ptr noundef nonnull readonly align 8 captures(none) dereferenceable(32) %0, i64 %.8.val, ptr %.16.val) unnamed_addr #0 align 2 personality ptr @__gxx_personality_v0 {
  %2 = alloca %"class.std::__cxx11::basic_string", align 8
  call void @llvm.lifetime.start.p0(i64 32, ptr nonnull %2) #17
  call fastcc void @_ZN5ZXingL21NormalizeFormatStringB5cxx11ESt17basic_string_viewIcSt11char_traitsIcEE(ptr dead_on_unwind noalias writable align 8 %2, i64 %.8.val, ptr %.16.val) #18
  %3 = getelementptr inbounds nuw i8, ptr %2, i64 8
  %4 = load i64, ptr %3, align 8, !tbaa !16
  %5 = getelementptr inbounds nuw i8, ptr %0, i64 8
  %6 = load i64, ptr %5, align 8, !tbaa !16
  %7 = icmp eq i64 %4, %6
  br i1 %7, label %8, label %._ZSteqIcEN9__gnu_cxx11__enable_ifIXsr9__is_charIT_EE7__valueEbE6__typeERKNSt7__cxx1112basic_stringIS2_St11char_traitsIS2_ESaIS2_EEESC_.exit_crit_edge.i

._ZSteqIcEN9__gnu_cxx11__enable_ifIXsr9__is_charIT_EE7__valueEbE6__typeERKNSt7__cxx1112basic_stringIS2_St11char_traitsIS2_ESaIS2_EEESC_.exit_crit_edge.i: ; preds = %1
  %.pre.i = load ptr, ptr %2, align 8, !tbaa !24
  br label %_ZSteqIcEN9__gnu_cxx11__enable_ifIXsr9__is_charIT_EE7__valueEbE6__typeERKNSt7__cxx1112basic_stringIS2_St11char_traitsIS2_ESaIS2_EEESC_.exit.i

8:                                                ; preds = %1
  %9 = icmp eq i64 %4, 0
  %.pre1.i = load ptr, ptr %2, align 8, !tbaa !24
  br i1 %9, label %_ZSteqIcEN9__gnu_cxx11__enable_ifIXsr9__is_charIT_EE7__valueEbE6__typeERKNSt7__cxx1112basic_stringIS2_St11char_traitsIS2_ESaIS2_EEESC_.exit.i, label %10

10:                                               ; preds = %8
  %11 = load ptr, ptr %0, align 8, !tbaa !24
  %bcmp.i.i = call i32 @bcmp(ptr %.pre1.i, ptr %11, i64 %4)
  %12 = icmp eq i32 %bcmp.i.i, 0
  br label %_ZSteqIcEN9__gnu_cxx11__enable_ifIXsr9__is_charIT_EE7__valueEbE6__typeERKNSt7__cxx1112basic_stringIS2_St11char_traitsIS2_ESaIS2_EEESC_.exit.i

_ZSteqIcEN9__gnu_cxx11__enable_ifIXsr9__is_charIT_EE7__valueEbE6__typeERKNSt7__cxx1112basic_stringIS2_St11char_traitsIS2_ESaIS2_EEESC_.exit.i: ; preds = %10, %8, %._ZSteqIcEN9__gnu_cxx11__enable_ifIXsr9__is_charIT_EE7__valueEbE6__typeERKNSt7__cxx1112basic_stringIS2_St11char_traitsIS2_ESaIS2_EEESC_.exit_crit_edge.i
  %13 = phi ptr [ %.pre.i, %._ZSteqIcEN9__gnu_cxx11__enable_ifIXsr9__is_charIT_EE7__valueEbE6__typeERKNSt7__cxx1112basic_stringIS2_St11char_traitsIS2_ESaIS2_EEESC_.exit_crit_edge.i ], [ %.pre1.i, %10 ], [ %.pre1.i, %8 ]
  %14 = phi i1 [ false, %._ZSteqIcEN9__gnu_cxx11__enable_ifIXsr9__is_charIT_EE7__valueEbE6__typeERKNSt7__cxx1112basic_stringIS2_St11char_traitsIS2_ESaIS2_EEESC_.exit_crit_edge.i ], [ %12, %10 ], [ true, %8 ]
  %15 = getelementptr inbounds nuw i8, ptr %2, i64 16
  %16 = icmp eq ptr %13, %15
  br i1 %16, label %_ZNKSt7__cxx1112basic_stringIcSt11char_traitsIcESaIcEE11_M_is_localEv.exit.thread.i.i.i, label %_ZNKSt7__cxx1112basic_stringIcSt11char_traitsIcESaIcEE11_M_is_localEv.exit.i.i.i

_ZNKSt7__cxx1112basic_stringIcSt11char_traitsIcESaIcEE11_M_is_localEv.exit.thread.i.i.i: ; preds = %_ZSteqIcEN9__gnu_cxx11__enable_ifIXsr9__is_charIT_EE7__valueEbE6__typeERKNSt7__cxx1112basic_stringIS2_St11char_traitsIS2_ESaIS2_EEESC_.exit.i
  %17 = icmp ult i64 %4, 16
  call void @llvm.assume(i1 %17)
  br label %"_ZZN5ZXingL17ParseFormatStringERKNSt7__cxx1112basic_stringIcSt11char_traitsIcESaIcEEEENK3$_0clINS_17BarcodeFormatNameEEEDaRT_.exit"

_ZNKSt7__cxx1112basic_stringIcSt11char_traitsIcESaIcEE11_M_is_localEv.exit.i.i.i: ; preds = %_ZSteqIcEN9__gnu_cxx11__enable_ifIXsr9__is_charIT_EE7__valueEbE6__typeERKNSt7__cxx1112basic_stringIS2_St11char_traitsIS2_ESaIS2_EEESC_.exit.i
  %18 = load i64, ptr %15, align 8, !tbaa !18
  %19 = add i64 %18, 1
  call void @_ZdlPvm(ptr noundef %13, i64 noundef %19) #19
  br label %"_ZZN5ZXingL17ParseFormatStringERKNSt7__cxx1112basic_stringIcSt11char_traitsIcESaIcEEEENK3$_0clINS_17BarcodeFormatNameEEEDaRT_.exit"

"_ZZN5ZXingL17ParseFormatStringERKNSt7__cxx1112basic_stringIcSt11char_traitsIcESaIcEEEENK3$_0clINS_17BarcodeFormatNameEEEDaRT_.exit": ; preds = %_ZNKSt7__cxx1112basic_stringIcSt11char_traitsIcESaIcEE11_M_is_localEv.exit.thread.i.i.i, %_ZNKSt7__cxx1112basic_stringIcSt11char_traitsIcESaIcEE11_M_is_localEv.exit.i.i.i
  call void @llvm.lifetime.end.p0(i64 32, ptr nonnull %2) #17
  ret i1 %14
}